target datalayout = "e-m:e-p270:32:32-p271:32:32-p272:64:64-i64:64-i128:128-f80:128-n8:16:32:64-S128"
target triple = "x86_64-unknown-linux-gnu"

%"class.Assimp::MDLImporter" = type <{ %"class.Assimp::BaseImporter", i32, [4 x i8], %"class.std::__cxx11::basic_string", ptr, i32, [4 x i8], ptr, ptr, i32, %"struct.Assimp::MDL::HalfLife::HL1ImportSettings", [2 x i8] }>
%"class.Assimp::BaseImporter" = type { ptr, double, double, %"class.std::__cxx11::basic_string", %"class.std::__exception_ptr::exception_ptr", ptr }
%"class.std::__exception_ptr::exception_ptr" = type { ptr }
%"class.std::__cxx11::basic_string" = type { %"struct.std::__cxx11::basic_string<char>::_Alloc_hider", i64, %union.anon }
%"struct.std::__cxx11::basic_string<char>::_Alloc_hider" = type { ptr }
%union.anon = type { i64, [8 x i8] }
%"struct.Assimp::MDL::HalfLife::HL1ImportSettings" = type { i8, i8, i8, i8, i8, i8, i8, i8, i8, i8 }
%struct.aiScene = type { i32, ptr, i32, ptr, i32, ptr, i32, ptr, i32, ptr, i32, ptr, i32, ptr, ptr, %struct.aiString, i32, ptr, ptr }
%struct.aiString = type { i32, [1024 x i8] }
%"struct.Assimp::MDL::Header" = type { i32, i32, [3 x float], [3 x float], float, [3 x float], i32, i32, i32, i32, i32, i32, i32, i32, float }
%struct.aiMesh = type { i32, i32, i32, ptr, ptr, ptr, ptr, [8 x ptr], [8 x ptr], [8 x i32], ptr, i32, ptr, i32, %struct.aiString, i32, ptr, i32, %struct.aiAABB, ptr }
%struct.aiAABB = type { %class.aiVector3t, %class.aiVector3t }
%class.aiVector3t = type { float, float, float }
%struct.aiTexture = type <{ i32, i32, [9 x i8], [7 x i8], ptr, %struct.aiString, [4 x i8] }>

@.str.64 = private unnamed_addr constant [198 x i8] c"Either the width or the height of the embedded DDS texture is zero. Unable to compute final texture coordinates. The texture coordinates remain in their original 0-x/0-y (x,y = texture size) range.\00", align 1

; Function Attrs: mustprogress nounwind uwtable
define linkonce_odr hidden noundef zeroext i1 @_ZNK6aiMesh16HasTextureCoordsEj(ptr noundef nonnull align 8 dereferenceable(1320) %this, i32 noundef %index) #0 comdat align 2 {
entry:
  %retval = alloca i1, align 1
  %this.addr = alloca ptr, align 8
  %index.addr = alloca i32, align 4
  store ptr %this, ptr %this.addr, align 8
  store i32 %index, ptr %index.addr, align 4
  %this1 = load ptr, ptr %this.addr, align 8
  %0 = load i32, ptr %index.addr, align 4
  %cmp = icmp uge i32 %0, 8
  br i1 %cmp, label %if.then, label %if.end

if.then:                                          ; preds = %entry
  store i1 false, ptr %retval, align 1
  br label %return

if.end:                                           ; preds = %entry
  %mTextureCoords = getelementptr inbounds %struct.aiMesh, ptr %this1, i32 0, i32 8
  %1 = load i32, ptr %index.addr, align 4
  %idxprom = zext i32 %1 to i64
  %arrayidx = getelementptr inbounds [8 x ptr], ptr %mTextureCoords, i64 0, i64 %idxprom
  %2 = load ptr, ptr %arrayidx, align 8
  %cmp2 = icmp ne ptr %2, null
  br i1 %cmp2, label %land.rhs, label %land.end

land.rhs:                                         ; preds = %if.end
  %mNumVertices = getelementptr inbounds %struct.aiMesh, ptr %this1, i32 0, i32 1
  %3 = load i32, ptr %mNumVertices, align 4
  %cmp3 = icmp ugt i32 %3, 0
  br label %land.end

land.end:                                         ; preds = %land.rhs, %if.end
  %4 = phi i1 [ false, %if.end ], [ %cmp3, %land.rhs ]
  store i1 %4, ptr %retval, align 1
  br label %return

return:                                           ; preds = %land.end, %if.then
  %5 = load i1, ptr %retval, align 1
  ret i1 %5
}

; Function Attrs: mustprogress uwtable
define hidden void @_ZN6Assimp11MDLImporter27CalculateUVCoordinates_MDL5Ev(ptr noundef nonnull align 8 dereferenceable(158) %this) #2 align 2 {
entry:
  %this.addr = alloca ptr, align 8
  %pcHeader = alloca ptr, align 8
  %pcTex = alloca ptr, align 8
  %iWidth = alloca i32, align 4
  %iHeight = alloca i32, align 4
  %piPtr = alloca ptr, align 8
  %fWidth = alloca float, align 4
  %fHeight = alloca float, align 4
  %pcMesh = alloca ptr, align 8
  %i = alloca i32, align 4
  store ptr %this, ptr %this.addr, align 8
  %this1 = load ptr, ptr %this.addr, align 8
  %mBuffer = getelementptr inbounds %"class.Assimp::MDLImporter", ptr %this1, i32 0, i32 4
  %0 = load ptr, ptr %mBuffer, align 8
  store ptr %0, ptr %pcHeader, align 8
  %1 = load ptr, ptr %pcHeader, align 8
  %num_skins = getelementptr inbounds %"struct.Assimp::MDL::Header", ptr %1, i32 0, i32 6
  %2 = load i32, ptr %num_skins, align 1
  %tobool = icmp ne i32 %2, 0
  br i1 %tobool, label %land.lhs.true, label %if.end39

land.lhs.true:                                    ; preds = %entry
  %pScene = getelementptr inbounds %"class.Assimp::MDLImporter", ptr %this1, i32 0, i32 8
  %3 = load ptr, ptr %pScene, align 8
  %mNumTextures = getelementptr inbounds %struct.aiScene, ptr %3, i32 0, i32 8
  %4 = load i32, ptr %mNumTextures, align 8
  %tobool2 = icmp ne i32 %4, 0
  br i1 %tobool2, label %if.then, label %if.end39

if.then:                                          ; preds = %land.lhs.true
  %pScene3 = getelementptr inbounds %"class.Assimp::MDLImporter", ptr %this1, i32 0, i32 8
  %5 = load ptr, ptr %pScene3, align 8
  %mTextures = getelementptr inbounds %struct.aiScene, ptr %5, i32 0, i32 9
  %6 = load ptr, ptr %mTextures, align 8
  %arrayidx = getelementptr inbounds ptr, ptr %6, i64 0
  %7 = load ptr, ptr %arrayidx, align 8
  store ptr %7, ptr %pcTex, align 8
  %8 = load ptr, ptr %pcTex, align 8
  %mHeight = getelementptr inbounds %struct.aiTexture, ptr %8, i32 0, i32 1
  %9 = load i32, ptr %mHeight, align 4
  %tobool4 = icmp ne i32 %9, 0
  br i1 %tobool4, label %if.else, label %if.then5

if.then5:                                         ; preds = %if.then
  %10 = load ptr, ptr %pcTex, align 8
  %pcData = getelementptr inbounds %struct.aiTexture, ptr %10, i32 0, i32 4
  %11 = load ptr, ptr %pcData, align 8
  store ptr %11, ptr %piPtr, align 8
  %12 = load ptr, ptr %piPtr, align 8
  %add.ptr = getelementptr inbounds i32, ptr %12, i64 3
  store ptr %add.ptr, ptr %piPtr, align 8
  %13 = load ptr, ptr %piPtr, align 8
  %incdec.ptr = getelementptr inbounds i32, ptr %13, i32 1
  store ptr %incdec.ptr, ptr %piPtr, align 8
  %14 = load i32, ptr %13, align 4
  store i32 %14, ptr %iHeight, align 4
  %15 = load ptr, ptr %piPtr, align 8
  %16 = load i32, ptr %15, align 4
  store i32 %16, ptr %iWidth, align 4
  %17 = load i32, ptr %iHeight, align 4
  %tobool6 = icmp ne i32 %17, 0
  br i1 %tobool6, label %lor.lhs.false, label %if.then8

lor.lhs.false:                                    ; preds = %if.then5
  %18 = load i32, ptr %iWidth, align 4
  %tobool7 = icmp ne i32 %18, 0
  br i1 %tobool7, label %if.end, label %if.then8

if.then8:                                         ; preds = %lor.lhs.false, %if.then5
  %call = call noundef ptr @_ZN6Assimp13DefaultLogger3getEv()
  call void @_ZN6Assimp6Logger4warnEPKc(ptr noundef nonnull align 8 dereferenceable(12) %call, ptr noundef @.str.64)
  store i32 1, ptr %iWidth, align 4
  store i32 1, ptr %iHeight, align 4
  br label %if.end

if.end:                                           ; preds = %if.then8, %lor.lhs.false
  br label %if.end10

if.else:                                          ; preds = %if.then
  %19 = load ptr, ptr %pcTex, align 8
  %mWidth = getelementptr inbounds %struct.aiTexture, ptr %19, i32 0, i32 0
  %20 = load i32, ptr %mWidth, align 8
  store i32 %20, ptr %iWidth, align 4
  %21 = load ptr, ptr %pcTex, align 8
  %mHeight9 = getelementptr inbounds %struct.aiTexture, ptr %21, i32 0, i32 1
  %22 = load i32, ptr %mHeight9, align 4
  store i32 %22, ptr %iHeight, align 4
  br label %if.end10

if.end10:                                         ; preds = %if.else, %if.end
  %23 = load i32, ptr %iWidth, align 4
  %cmp = icmp ne i32 1, %23
  br i1 %cmp, label %if.then13, label %lor.lhs.false11

lor.lhs.false11:                                  ; preds = %if.end10
  %24 = load i32, ptr %iHeight, align 4
  %cmp12 = icmp ne i32 1, %24
  br i1 %cmp12, label %if.then13, label %if.end38

if.then13:                                        ; preds = %lor.lhs.false11, %if.end10
  %25 = load i32, ptr %iWidth, align 4
  %conv = uitofp i32 %25 to float
  store float %conv, ptr %fWidth, align 4
  %26 = load i32, ptr %iHeight, align 4
  %conv14 = uitofp i32 %26 to float
  store float %conv14, ptr %fHeight, align 4
  %pScene15 = getelementptr inbounds %"class.Assimp::MDLImporter", ptr %this1, i32 0, i32 8
  %27 = load ptr, ptr %pScene15, align 8
  %mMeshes = getelementptr inbounds %struct.aiScene, ptr %27, i32 0, i32 3
  %28 = load ptr, ptr %mMeshes, align 8
  %arrayidx16 = getelementptr inbounds ptr, ptr %28, i64 0
  %29 = load ptr, ptr %arrayidx16, align 8
  store ptr %29, ptr %pcMesh, align 8
  store i32 0, ptr %i, align 4
  br label %for.cond

for.cond:                                         ; preds = %for.inc, %if.then13
  %30 = load i32, ptr %i, align 4
  %31 = load ptr, ptr %pcMesh, align 8
  %mNumVertices = getelementptr inbounds %struct.aiMesh, ptr %31, i32 0, i32 1
  %32 = load i32, ptr %mNumVertices, align 4
  %cmp17 = icmp ult i32 %30, %32
  br i1 %cmp17, label %for.body, label %for.end

for.body:                                         ; preds = %for.cond
  %33 = load ptr, ptr %pcMesh, align 8
  %call18 = call noundef zeroext i1 @_ZNK6aiMesh16HasTextureCoordsEj(ptr noundef nonnull align 8 dereferenceable(1320) %33, i32 noundef 0)
  br i1 %call18, label %if.end20, label %if.then19

if.then19:                                        ; preds = %for.body
  br label %for.inc

if.end20:                                         ; preds = %for.body
  %34 = load float, ptr %fWidth, align 4
  %35 = load ptr, ptr %pcMesh, align 8
  %mTextureCoords = getelementptr inbounds %struct.aiMesh, ptr %35, i32 0, i32 8
  %arrayidx21 = getelementptr inbounds [8 x ptr], ptr %mTextureCoords, i64 0, i64 0
  %36 = load ptr, ptr %arrayidx21, align 8
  %37 = load i32, ptr %i, align 4
  %idxprom = zext i32 %37 to i64
  %arrayidx22 = getelementptr inbounds %class.aiVector3t, ptr %36, i64 %idxprom
  %x = getelementptr inbounds %class.aiVector3t, ptr %arrayidx22, i32 0, i32 0
  %38 = load float, ptr %x, align 4
  %div = fdiv float %38, %34
  store float %div, ptr %x, align 4
  %39 = load float, ptr %fHeight, align 4
  %40 = load ptr, ptr %pcMesh, align 8
  %mTextureCoords23 = getelementptr inbounds %struct.aiMesh, ptr %40, i32 0, i32 8
  %arrayidx24 = getelementptr inbounds [8 x ptr], ptr %mTextureCoords23, i64 0, i64 0
  %41 = load ptr, ptr %arrayidx24, align 8
  %42 = load i32, ptr %i, align 4
  %idxprom25 = zext i32 %42 to i64
  %arrayidx26 = getelementptr inbounds %class.aiVector3t, ptr %41, i64 %idxprom25
  %y = getelementptr inbounds %class.aiVector3t, ptr %arrayidx26, i32 0, i32 1
  %43 = load float, ptr %y, align 4
  %div27 = fdiv float %43, %39
  store float %div27, ptr %y, align 4
  %44 = load ptr, ptr %pcMesh, align 8
  %mTextureCoords28 = getelementptr inbounds %struct.aiMesh, ptr %44, i32 0, i32 8
  %arrayidx29 = getelementptr inbounds [8 x ptr], ptr %mTextureCoords28, i64 0, i64 0
  %45 = load ptr, ptr %arrayidx29, align 8
  %46 = load i32, ptr %i, align 4
  %idxprom30 = zext i32 %46 to i64
  %arrayidx31 = getelementptr inbounds %class.aiVector3t, ptr %45, i64 %idxprom30
  %y32 = getelementptr inbounds %class.aiVector3t, ptr %arrayidx31, i32 0, i32 1
  %47 = load float, ptr %y32, align 4
  %sub = fsub float 1.000000e+00, %47
  %48 = load ptr, ptr %pcMesh, align 8
  %mTextureCoords33 = getelementptr inbounds %struct.aiMesh, ptr %48, i32 0, i32 8
  %arrayidx34 = getelementptr inbounds [8 x ptr], ptr %mTextureCoords33, i64 0, i64 0
  %49 = load ptr, ptr %arrayidx34, align 8
  %50 = load i32, ptr %i, align 4
  %idxprom35 = zext i32 %50 to i64
  %arrayidx36 = getelementptr inbounds %class.aiVector3t, ptr %49, i64 %idxprom35
  %y37 = getelementptr inbounds %class.aiVector3t, ptr %arrayidx36, i32 0, i32 1
  store float %sub, ptr %y37, align 4
  br label %for.inc

for.inc:                                          ; preds = %if.end20, %if.then19
  %51 = load i32, ptr %i, align 4
  %inc = add i32 %51, 1
  store i32 %inc, ptr %i, align 4
  br label %for.cond, !llvm.loop !24

for.end:                                          ; preds = %for.cond
  br label %if.end38

if.end38:                                         ; preds = %for.end, %lor.lhs.false11
  br label %if.end39

if.end39:                                         ; preds = %if.end38, %land.lhs.true, %entry
  ret void
}