; Function Attrs: mustprogress uwtable
define hidden void @_ZN6Assimp11MDLImporter27CalculateUVCoordinates_MDL5Ev(ptr nocapture noundef nonnull readonly align 8 dereferenceable(158) %this) local_unnamed_addr #2 align 2 {
entry:
  %mBuffer = getelementptr inbounds i8, ptr %this, i64 112
  %0 = load ptr, ptr %mBuffer, align 8
  %num_skins = getelementptr inbounds i8, ptr %0, i64 48
  %1 = load i32, ptr %num_skins, align 1
  %tobool.not = icmp eq i32 %1, 0
  br i1 %tobool.not, label %if.end39, label %land.lhs.true

land.lhs.true:                                    ; preds = %entry
  %pScene = getelementptr inbounds i8, ptr %this, i64 136
  %2 = load ptr, ptr %pScene, align 8
  %mNumTextures = getelementptr inbounds i8, ptr %2, i64 64
  %3 = load i32, ptr %mNumTextures, align 8
  %tobool2.not = icmp eq i32 %3, 0
  br i1 %tobool2.not, label %if.end39, label %if.then

if.then:                                          ; preds = %land.lhs.true
  %mTextures = getelementptr inbounds i8, ptr %2, i64 72
  %4 = load ptr, ptr %mTextures, align 8
  %5 = load ptr, ptr %4, align 8
  %mHeight = getelementptr inbounds i8, ptr %5, i64 4
  %6 = load i32, ptr %mHeight, align 4
  %tobool4.not = icmp eq i32 %6, 0
  br i1 %tobool4.not, label %if.then5, label %if.else

if.then5:                                         ; preds = %if.then
  %pcData = getelementptr inbounds i8, ptr %5, i64 24
  %7 = load ptr, ptr %pcData, align 8
  %add.ptr = getelementptr inbounds i8, ptr %7, i64 12
  %incdec.ptr = getelementptr inbounds i8, ptr %7, i64 16
  %8 = load i32, ptr %add.ptr, align 4
  %9 = load i32, ptr %incdec.ptr, align 4
  %tobool6 = icmp ne i32 %8, 0
  %tobool7 = icmp ne i32 %9, 0
  %or.cond = select i1 %tobool6, i1 %tobool7, i1 false
  br i1 %or.cond, label %if.end10, label %if.then8

if.then8:                                         ; preds = %if.then5
  %call = tail call noundef ptr @_ZN6Assimp13DefaultLogger3getEv()
  tail call void @_ZN6Assimp6Logger4warnEPKc(ptr noundef nonnull align 8 dereferenceable(12) %call, ptr noundef nonnull @.str.64)
  br label %if.end10

if.else:                                          ; preds = %if.then
  %10 = load i32, ptr %5, align 8
  br label %if.end10

if.end10:                                         ; preds = %if.then8, %if.then5, %if.else
  %iHeight.0 = phi i32 [ %6, %if.else ], [ %8, %if.then5 ], [ 1, %if.then8 ]
  %iWidth.0 = phi i32 [ %10, %if.else ], [ %9, %if.then5 ], [ 1, %if.then8 ]
  %cmp = icmp ne i32 %iWidth.0, 1
  %cmp12 = icmp ne i32 %iHeight.0, 1
  %or.cond1 = or i1 %cmp12, %cmp
  br i1 %or.cond1, label %if.then13, label %if.end39

if.then13:                                        ; preds = %if.end10
  %conv = uitofp i32 %iWidth.0 to float
  %conv14 = uitofp i32 %iHeight.0 to float
  %11 = load ptr, ptr %pScene, align 8
  %mMeshes = getelementptr inbounds i8, ptr %11, i64 24
  %12 = load ptr, ptr %mMeshes, align 8
  %13 = load ptr, ptr %12, align 8
  %mNumVertices = getelementptr inbounds i8, ptr %13, i64 4
  %14 = load i32, ptr %mNumVertices, align 4
  %cmp1723.not = icmp eq i32 %14, 0
  br i1 %cmp1723.not, label %if.end39, label %for.body.lr.ph

for.body.lr.ph:                                   ; preds = %if.then13
  %mTextureCoords.i = getelementptr inbounds i8, ptr %13, i64 112
  %15 = load ptr, ptr %mTextureCoords.i, align 8
  %16 = icmp eq ptr %15, null
  br i1 %16, label %if.end39, label %for.body

for.bodythread-pre-split:                         ; preds = %for.inc
  %.pr = load ptr, ptr %mTextureCoords.i, align 8
  br label %for.body

for.body:                                         ; preds = %for.body.lr.ph, %for.bodythread-pre-split
  %17 = phi ptr [ %.pr, %for.bodythread-pre-split ], [ %15, %for.body.lr.ph ]
  %18 = phi i32 [ %24, %for.bodythread-pre-split ], [ %14, %for.body.lr.ph ]
  %indvars.iv = phi i64 [ %indvars.iv.next, %for.bodythread-pre-split ], [ 0, %for.body.lr.ph ]
  %cmp2.not.i.not = icmp eq ptr %17, null
  br i1 %cmp2.not.i.not, label %for.inc, label %if.end20

if.end20:                                         ; preds = %for.body
  %arrayidx22 = getelementptr inbounds %class.aiVector3t, ptr %17, i64 %indvars.iv
  %19 = load float, ptr %arrayidx22, align 4
  %div = fdiv float %19, %conv
  store float %div, ptr %arrayidx22, align 4
  %20 = load ptr, ptr %mTextureCoords.i, align 8
  %y = getelementptr inbounds %class.aiVector3t, ptr %20, i64 %indvars.iv, i32 1
  %21 = load float, ptr %y, align 4
  %div27 = fdiv float %21, %conv14
  store float %div27, ptr %y, align 4
  %22 = load ptr, ptr %mTextureCoords.i, align 8
  %y32 = getelementptr inbounds %class.aiVector3t, ptr %22, i64 %indvars.iv, i32 1
  %23 = load float, ptr %y32, align 4
  %sub = fsub float 1.000000e+00, %23
  store float %sub, ptr %y32, align 4
  %.pre = load i32, ptr %mNumVertices, align 4
  br label %for.inc

for.inc:                                          ; preds = %for.body, %if.end20
  %24 = phi i32 [ %18, %for.body ], [ %.pre, %if.end20 ]
  %indvars.iv.next = add nuw nsw i64 %indvars.iv, 1
  %25 = zext i32 %24 to i64
  %cmp17 = icmp ult i64 %indvars.iv.next, %25
  br i1 %cmp17, label %for.bodythread-pre-split, label %if.end39, !llvm.loop !30

if.end39:                                         ; preds = %for.inc, %for.body.lr.ph, %if.then13, %if.end10, %land.lhs.true, %entry
  ret void
}